   1              		.cpu arm7tdmi
   2              		.fpu softvfp
   3              		.eabi_attribute 20, 1
   4              		.eabi_attribute 21, 1
   5              		.eabi_attribute 23, 3
   6              		.eabi_attribute 24, 1
   7              		.eabi_attribute 25, 1
   8              		.eabi_attribute 26, 1
   9              		.eabi_attribute 30, 6
  10              		.eabi_attribute 18, 4
  11              		.file	"main.c"
  21              	.Ltext0:
  22              		.file 1 "../LCD_touch_2025/main.c"
 2111              		.align	2
 2112              		.global	MainLCD
 2114              	MainLCD:
 2115              	.LFB0:
   1:../LCD_touch_2025/main.c **** /*********************************************************************************************
   2:../LCD_touch_2025/main.c **** * File	main.c
   3:../LCD_touch_2025/main.c **** * Author: embest
   4:../LCD_touch_2025/main.c **** * Description: main entry
   5:../LCD_touch_2025/main.c **** * History:	
   6:../LCD_touch_2025/main.c **** *********************************************************************************************/
   7:../LCD_touch_2025/main.c **** 
   8:../LCD_touch_2025/main.c **** /*--- include files ---*/
   9:../LCD_touch_2025/main.c **** #include "44blib.h"
  10:../LCD_touch_2025/main.c **** #include "44b.h"
  11:../LCD_touch_2025/main.c **** #include "tp.h"
  12:../LCD_touch_2025/main.c **** #include "lcd.h"
  13:../LCD_touch_2025/main.c **** 
  14:../LCD_touch_2025/main.c **** 	char yn;
  15:../LCD_touch_2025/main.c **** /*--- function declare ---*/
  16:../LCD_touch_2025/main.c **** void MainLCD(void);
  17:../LCD_touch_2025/main.c **** 
  18:../LCD_touch_2025/main.c **** /*--- extern function ---*/
  19:../LCD_touch_2025/main.c **** extern void Lcd_Test();
  20:../LCD_touch_2025/main.c **** 
  21:../LCD_touch_2025/main.c **** /*--- function code ---*/
  22:../LCD_touch_2025/main.c **** /*********************************************************************************************
  23:../LCD_touch_2025/main.c **** * name:		main
  24:../LCD_touch_2025/main.c **** * func:		c code entry
  25:../LCD_touch_2025/main.c **** * para:		none
  26:../LCD_touch_2025/main.c **** * ret:		none
  27:../LCD_touch_2025/main.c **** * modify:
  28:../LCD_touch_2025/main.c **** * comment:		
  29:../LCD_touch_2025/main.c **** *********************************************************************************************/
  30:../LCD_touch_2025/main.c **** void MainLCD(void)
  31:../LCD_touch_2025/main.c **** {
 2116              		.loc 1 31 0
 2117              		.cfi_startproc
 2118              		@ Function supports interworking.
 2119              		@ args = 0, pretend = 0, frame = 0
 2120              		@ frame_needed = 1, uses_anonymous_args = 0
 2121 0000 0DC0A0E1 		mov	ip, sp
 2122              	.LCFI0:
 2123              		.cfi_def_cfa_register 12
 2124 0004 00D82DE9 		stmfd	sp!, {fp, ip, lr, pc}
 2125 0008 04B04CE2 		sub	fp, ip, #4
 2126              		.cfi_offset 14, -8
 2127              		.cfi_offset 13, -12
 2128              		.cfi_offset 11, -16
 2129              	.LCFI1:
 2130              		.cfi_def_cfa 11, 4
  32:../LCD_touch_2025/main.c ****     sys_init();        /* Initial 44B0X's Interrupt, Port and UART */
 2131              		.loc 1 32 0
 2132 000c FEFFFFEB 		bl	sys_init
  33:../LCD_touch_2025/main.c ****     // CAMBIARRR _Link();           /* Print Misc info */
  34:../LCD_touch_2025/main.c **** 	/******************/
  35:../LCD_touch_2025/main.c **** 	/* user interface */
  36:../LCD_touch_2025/main.c **** 	/******************/
  37:../LCD_touch_2025/main.c **** 	/* Mostrar pantalla de bienvenida */
  38:../LCD_touch_2025/main.c **** 	Lcd_mostrar_pantalla_bienvenida();	Lcd_Test();
 2133              		.loc 1 38 0
 2134 0010 FEFFFFEB 		bl	Lcd_mostrar_pantalla_bienvenida
 2135 0014 FEFFFFEB 		bl	Lcd_Test
  39:../LCD_touch_2025/main.c **** 	TS_Test();
 2136              		.loc 1 39 0
 2137 0018 FEFFFFEB 		bl	TS_Test
 2138 001c 000000EA 		b	.L3
 2139              	.L4:
  40:../LCD_touch_2025/main.c **** 		
  41:../LCD_touch_2025/main.c **** 	while(1)
  42:../LCD_touch_2025/main.c **** 	 {
  43:../LCD_touch_2025/main.c **** 	   //CAMBIARRR yn = Uart_Getch();
  44:../LCD_touch_2025/main.c **** 	   
  45:../LCD_touch_2025/main.c **** 	   if(yn == 0x52) TS_Test();// R to reset the XY REC
  46:../LCD_touch_2025/main.c **** 	   //else break;
  47:../LCD_touch_2025/main.c **** 	 }
 2140              		.loc 1 47 0
 2141 0020 0000A0E1 		mov	r0, r0	@ nop
 2142              	.L3:
  45:../LCD_touch_2025/main.c **** 	   if(yn == 0x52) TS_Test();// R to reset the XY REC
 2143              		.loc 1 45 0
 2144 0024 10309FE5 		ldr	r3, .L5
 2145 0028 0030D3E5 		ldrb	r3, [r3, #0]	@ zero_extendqisi2
 2146 002c 520053E3 		cmp	r3, #82
 2147 0030 FAFFFF1A 		bne	.L4
  45:../LCD_touch_2025/main.c **** 	   if(yn == 0x52) TS_Test();// R to reset the XY REC
 2148              		.loc 1 45 0 is_stmt 0 discriminator 1
 2149 0034 FEFFFFEB 		bl	TS_Test
 2150              		.loc 1 47 0 is_stmt 1 discriminator 1
 2151 0038 F9FFFFEA 		b	.L3
 2152              	.L6:
 2153              		.align	2
 2154              	.L5:
 2155 003c 00000000 		.word	yn
 2156              		.cfi_endproc
 2157              	.LFE0:
 2159              	.Letext0: